target datalayout = "e-m:e-p270:32:32-p271:32:32-p272:64:64-i64:64-i128:128-f80:128-n8:16:32:64-S128"
target triple = "x86_64-pc-linux-gnu"

%struct.event = type { %struct.event_callback, %union.anon.0, i32, i16, i16, ptr, %union.anon.2, %struct.timeval }
%struct.event_callback = type { %struct.anon, i16, i8, i8, %union.anon, ptr }
%struct.anon = type { ptr, ptr }
%union.anon = type { ptr }
%union.anon.0 = type { %struct.anon.1 }
%struct.anon.1 = type { ptr, ptr }
%union.anon.2 = type { %struct.anon.3 }
%struct.anon.3 = type { %struct.anon.4, %struct.timeval }
%struct.anon.4 = type { ptr, ptr }
%struct.timeval = type { i64, i64 }
%struct.evdns_tree = type { ptr }
%struct.evdns_cache = type { %struct.anon.9, ptr, ptr, %struct.event, ptr }
%struct.anon.9 = type { ptr, ptr }

; Function Attrs: nounwind uwtable
define internal i32 @evdns_cache_compare(ptr noundef %0, ptr noundef %1) #0 {
  %3 = alloca ptr, align 8
  %4 = alloca ptr, align 8
  store ptr %0, ptr %3, align 8
  store ptr %1, ptr %4, align 8
  %5 = load ptr, ptr %3, align 8
  %6 = getelementptr inbounds nuw %struct.evdns_cache, ptr %5, i32 0, i32 1
  %7 = load ptr, ptr %6, align 8
  %8 = load ptr, ptr %4, align 8
  %9 = getelementptr inbounds nuw %struct.evdns_cache, ptr %8, i32 0, i32 1
  %10 = load ptr, ptr %9, align 8
  %11 = call i32 @strcasecmp(ptr noundef %7, ptr noundef %10) #12
  ret i32 %11
}

; Function Attrs: nounwind uwtable
define hidden void @evdns_tree_SPLAY(ptr noundef %0, ptr noundef %1) #0 {
  %3 = alloca ptr, align 8
  %4 = alloca ptr, align 8
  %5 = alloca %struct.evdns_cache, align 8
  %6 = alloca ptr, align 8
  %7 = alloca ptr, align 8
  %8 = alloca ptr, align 8
  %9 = alloca i32, align 4
  store ptr %0, ptr %3, align 8
  store ptr %1, ptr %4, align 8
  call void @llvm.lifetime.start.p0(i64 160, ptr %5) #10
  call void @llvm.lifetime.start.p0(i64 8, ptr %6) #10
  call void @llvm.lifetime.start.p0(i64 8, ptr %7) #10
  call void @llvm.lifetime.start.p0(i64 8, ptr %8) #10
  call void @llvm.lifetime.start.p0(i64 4, ptr %9) #10
  %10 = getelementptr inbounds nuw %struct.evdns_cache, ptr %5, i32 0, i32 0
  %11 = getelementptr inbounds nuw %struct.anon.9, ptr %10, i32 0, i32 1
  store ptr null, ptr %11, align 8
  %12 = getelementptr inbounds nuw %struct.evdns_cache, ptr %5, i32 0, i32 0
  %13 = getelementptr inbounds nuw %struct.anon.9, ptr %12, i32 0, i32 0
  store ptr null, ptr %13, align 8
  store ptr %5, ptr %7, align 8
  store ptr %5, ptr %6, align 8
  br label %14

14:                                               ; preds = %162, %2
  %15 = load ptr, ptr %4, align 8
  %16 = load ptr, ptr %3, align 8
  %17 = getelementptr inbounds nuw %struct.evdns_tree, ptr %16, i32 0, i32 0
  %18 = load ptr, ptr %17, align 8
  %19 = call i32 @evdns_cache_compare(ptr noundef %15, ptr noundef %18)
  store i32 %19, ptr %9, align 4
  %20 = icmp ne i32 %19, 0
  br i1 %20, label %21, label %163

21:                                               ; preds = %14
  %22 = load i32, ptr %9, align 4
  %23 = icmp slt i32 %22, 0
  br i1 %23, label %24, label %91

24:                                               ; preds = %21
  %25 = load ptr, ptr %3, align 8
  %26 = getelementptr inbounds nuw %struct.evdns_tree, ptr %25, i32 0, i32 0
  %27 = load ptr, ptr %26, align 8
  %28 = getelementptr inbounds nuw %struct.evdns_cache, ptr %27, i32 0, i32 0
  %29 = getelementptr inbounds nuw %struct.anon.9, ptr %28, i32 0, i32 0
  %30 = load ptr, ptr %29, align 8
  store ptr %30, ptr %8, align 8
  %31 = load ptr, ptr %8, align 8
  %32 = icmp eq ptr %31, null
  br i1 %32, label %33, label %34

33:                                               ; preds = %24
  br label %163

34:                                               ; preds = %24
  %35 = load ptr, ptr %4, align 8
  %36 = load ptr, ptr %8, align 8
  %37 = call i32 @evdns_cache_compare(ptr noundef %35, ptr noundef %36)
  %38 = icmp slt i32 %37, 0
  br i1 %38, label %39, label %70

39:                                               ; preds = %34
  br label %40

40:                                               ; preds = %39
  %41 = load ptr, ptr %8, align 8
  %42 = getelementptr inbounds nuw %struct.evdns_cache, ptr %41, i32 0, i32 0
  %43 = getelementptr inbounds nuw %struct.anon.9, ptr %42, i32 0, i32 1
  %44 = load ptr, ptr %43, align 8
  %45 = load ptr, ptr %3, align 8
  %46 = getelementptr inbounds nuw %struct.evdns_tree, ptr %45, i32 0, i32 0
  %47 = load ptr, ptr %46, align 8
  %48 = getelementptr inbounds nuw %struct.evdns_cache, ptr %47, i32 0, i32 0
  %49 = getelementptr inbounds nuw %struct.anon.9, ptr %48, i32 0, i32 0
  store ptr %44, ptr %49, align 8
  %50 = load ptr, ptr %3, align 8
  %51 = getelementptr inbounds nuw %struct.evdns_tree, ptr %50, i32 0, i32 0
  %52 = load ptr, ptr %51, align 8
  %53 = load ptr, ptr %8, align 8
  %54 = getelementptr inbounds nuw %struct.evdns_cache, ptr %53, i32 0, i32 0
  %55 = getelementptr inbounds nuw %struct.anon.9, ptr %54, i32 0, i32 1
  store ptr %52, ptr %55, align 8
  %56 = load ptr, ptr %8, align 8
  %57 = load ptr, ptr %3, align 8
  %58 = getelementptr inbounds nuw %struct.evdns_tree, ptr %57, i32 0, i32 0
  store ptr %56, ptr %58, align 8
  br label %59

59:                                               ; preds = %40
  br label %60

60:                                               ; preds = %59
  %61 = load ptr, ptr %3, align 8
  %62 = getelementptr inbounds nuw %struct.evdns_tree, ptr %61, i32 0, i32 0
  %63 = load ptr, ptr %62, align 8
  %64 = getelementptr inbounds nuw %struct.evdns_cache, ptr %63, i32 0, i32 0
  %65 = getelementptr inbounds nuw %struct.anon.9, ptr %64, i32 0, i32 0
  %66 = load ptr, ptr %65, align 8
  %67 = icmp eq ptr %66, null
  br i1 %67, label %68, label %69

68:                                               ; preds = %60
  br label %163

69:                                               ; preds = %60
  br label %70

70:                                               ; preds = %69, %34
  br label %71

71:                                               ; preds = %70
  %72 = load ptr, ptr %3, align 8
  %73 = getelementptr inbounds nuw %struct.evdns_tree, ptr %72, i32 0, i32 0
  %74 = load ptr, ptr %73, align 8
  %75 = load ptr, ptr %7, align 8
  %76 = getelementptr inbounds nuw %struct.evdns_cache, ptr %75, i32 0, i32 0
  %77 = getelementptr inbounds nuw %struct.anon.9, ptr %76, i32 0, i32 0
  store ptr %74, ptr %77, align 8
  %78 = load ptr, ptr %3, align 8
  %79 = getelementptr inbounds nuw %struct.evdns_tree, ptr %78, i32 0, i32 0
  %80 = load ptr, ptr %79, align 8
  store ptr %80, ptr %7, align 8
  %81 = load ptr, ptr %3, align 8
  %82 = getelementptr inbounds nuw %struct.evdns_tree, ptr %81, i32 0, i32 0
  %83 = load ptr, ptr %82, align 8
  %84 = getelementptr inbounds nuw %struct.evdns_cache, ptr %83, i32 0, i32 0
  %85 = getelementptr inbounds nuw %struct.anon.9, ptr %84, i32 0, i32 0
  %86 = load ptr, ptr %85, align 8
  %87 = load ptr, ptr %3, align 8
  %88 = getelementptr inbounds nuw %struct.evdns_tree, ptr %87, i32 0, i32 0
  store ptr %86, ptr %88, align 8
  br label %89

89:                                               ; preds = %71
  br label %90

90:                                               ; preds = %89
  br label %162

91:                                               ; preds = %21
  %92 = load i32, ptr %9, align 4
  %93 = icmp sgt i32 %92, 0
  br i1 %93, label %94, label %161

94:                                               ; preds = %91
  %95 = load ptr, ptr %3, align 8
  %96 = getelementptr inbounds nuw %struct.evdns_tree, ptr %95, i32 0, i32 0
  %97 = load ptr, ptr %96, align 8
  %98 = getelementptr inbounds nuw %struct.evdns_cache, ptr %97, i32 0, i32 0
  %99 = getelementptr inbounds nuw %struct.anon.9, ptr %98, i32 0, i32 1
  %100 = load ptr, ptr %99, align 8
  store ptr %100, ptr %8, align 8
  %101 = load ptr, ptr %8, align 8
  %102 = icmp eq ptr %101, null
  br i1 %102, label %103, label %104

103:                                              ; preds = %94
  br label %163

104:                                              ; preds = %94
  %105 = load ptr, ptr %4, align 8
  %106 = load ptr, ptr %8, align 8
  %107 = call i32 @evdns_cache_compare(ptr noundef %105, ptr noundef %106)
  %108 = icmp sgt i32 %107, 0
  br i1 %108, label %109, label %140

109:                                              ; preds = %104
  br label %110

110:                                              ; preds = %109
  %111 = load ptr, ptr %8, align 8
  %112 = getelementptr inbounds nuw %struct.evdns_cache, ptr %111, i32 0, i32 0
  %113 = getelementptr inbounds nuw %struct.anon.9, ptr %112, i32 0, i32 0
  %114 = load ptr, ptr %113, align 8
  %115 = load ptr, ptr %3, align 8
  %116 = getelementptr inbounds nuw %struct.evdns_tree, ptr %115, i32 0, i32 0
  %117 = load ptr, ptr %116, align 8
  %118 = getelementptr inbounds nuw %struct.evdns_cache, ptr %117, i32 0, i32 0
  %119 = getelementptr inbounds nuw %struct.anon.9, ptr %118, i32 0, i32 1
  store ptr %114, ptr %119, align 8
  %120 = load ptr, ptr %3, align 8
  %121 = getelementptr inbounds nuw %struct.evdns_tree, ptr %120, i32 0, i32 0
  %122 = load ptr, ptr %121, align 8
  %123 = load ptr, ptr %8, align 8
  %124 = getelementptr inbounds nuw %struct.evdns_cache, ptr %123, i32 0, i32 0
  %125 = getelementptr inbounds nuw %struct.anon.9, ptr %124, i32 0, i32 0
  store ptr %122, ptr %125, align 8
  %126 = load ptr, ptr %8, align 8
  %127 = load ptr, ptr %3, align 8
  %128 = getelementptr inbounds nuw %struct.evdns_tree, ptr %127, i32 0, i32 0
  store ptr %126, ptr %128, align 8
  br label %129

129:                                              ; preds = %110
  br label %130

130:                                              ; preds = %129
  %131 = load ptr, ptr %3, align 8
  %132 = getelementptr inbounds nuw %struct.evdns_tree, ptr %131, i32 0, i32 0
  %133 = load ptr, ptr %132, align 8
  %134 = getelementptr inbounds nuw %struct.evdns_cache, ptr %133, i32 0, i32 0
  %135 = getelementptr inbounds nuw %struct.anon.9, ptr %134, i32 0, i32 1
  %136 = load ptr, ptr %135, align 8
  %137 = icmp eq ptr %136, null
  br i1 %137, label %138, label %139

138:                                              ; preds = %130
  br label %163

139:                                              ; preds = %130
  br label %140

140:                                              ; preds = %139, %104
  br label %141

141:                                              ; preds = %140
  %142 = load ptr, ptr %3, align 8
  %143 = getelementptr inbounds nuw %struct.evdns_tree, ptr %142, i32 0, i32 0
  %144 = load ptr, ptr %143, align 8
  %145 = load ptr, ptr %6, align 8
  %146 = getelementptr inbounds nuw %struct.evdns_cache, ptr %145, i32 0, i32 0
  %147 = getelementptr inbounds nuw %struct.anon.9, ptr %146, i32 0, i32 1
  store ptr %144, ptr %147, align 8
  %148 = load ptr, ptr %3, align 8
  %149 = getelementptr inbounds nuw %struct.evdns_tree, ptr %148, i32 0, i32 0
  %150 = load ptr, ptr %149, align 8
  store ptr %150, ptr %6, align 8
  %151 = load ptr, ptr %3, align 8
  %152 = getelementptr inbounds nuw %struct.evdns_tree, ptr %151, i32 0, i32 0
  %153 = load ptr, ptr %152, align 8
  %154 = getelementptr inbounds nuw %struct.evdns_cache, ptr %153, i32 0, i32 0
  %155 = getelementptr inbounds nuw %struct.anon.9, ptr %154, i32 0, i32 1
  %156 = load ptr, ptr %155, align 8
  %157 = load ptr, ptr %3, align 8
  %158 = getelementptr inbounds nuw %struct.evdns_tree, ptr %157, i32 0, i32 0
  store ptr %156, ptr %158, align 8
  br label %159

159:                                              ; preds = %141
  br label %160

160:                                              ; preds = %159
  br label %161

161:                                              ; preds = %160, %91
  br label %162

162:                                              ; preds = %161, %90
  br label %14, !llvm.loop !30

163:                                              ; preds = %138, %103, %68, %33, %14
  br label %164

164:                                              ; preds = %163
  %165 = load ptr, ptr %3, align 8
  %166 = getelementptr inbounds nuw %struct.evdns_tree, ptr %165, i32 0, i32 0
  %167 = load ptr, ptr %166, align 8
  %168 = getelementptr inbounds nuw %struct.evdns_cache, ptr %167, i32 0, i32 0
  %169 = getelementptr inbounds nuw %struct.anon.9, ptr %168, i32 0, i32 0
  %170 = load ptr, ptr %169, align 8
  %171 = load ptr, ptr %6, align 8
  %172 = getelementptr inbounds nuw %struct.evdns_cache, ptr %171, i32 0, i32 0
  %173 = getelementptr inbounds nuw %struct.anon.9, ptr %172, i32 0, i32 1
  store ptr %170, ptr %173, align 8
  %174 = load ptr, ptr %3, align 8
  %175 = getelementptr inbounds nuw %struct.evdns_tree, ptr %174, i32 0, i32 0
  %176 = load ptr, ptr %175, align 8
  %177 = getelementptr inbounds nuw %struct.evdns_cache, ptr %176, i32 0, i32 0
  %178 = getelementptr inbounds nuw %struct.anon.9, ptr %177, i32 0, i32 1
  %179 = load ptr, ptr %178, align 8
  %180 = load ptr, ptr %7, align 8
  %181 = getelementptr inbounds nuw %struct.evdns_cache, ptr %180, i32 0, i32 0
  %182 = getelementptr inbounds nuw %struct.anon.9, ptr %181, i32 0, i32 0
  store ptr %179, ptr %182, align 8
  %183 = getelementptr inbounds nuw %struct.evdns_cache, ptr %5, i32 0, i32 0
  %184 = getelementptr inbounds nuw %struct.anon.9, ptr %183, i32 0, i32 1
  %185 = load ptr, ptr %184, align 8
  %186 = load ptr, ptr %3, align 8
  %187 = getelementptr inbounds nuw %struct.evdns_tree, ptr %186, i32 0, i32 0
  %188 = load ptr, ptr %187, align 8
  %189 = getelementptr inbounds nuw %struct.evdns_cache, ptr %188, i32 0, i32 0
  %190 = getelementptr inbounds nuw %struct.anon.9, ptr %189, i32 0, i32 0
  store ptr %185, ptr %190, align 8
  %191 = getelementptr inbounds nuw %struct.evdns_cache, ptr %5, i32 0, i32 0
  %192 = getelementptr inbounds nuw %struct.anon.9, ptr %191, i32 0, i32 0
  %193 = load ptr, ptr %192, align 8
  %194 = load ptr, ptr %3, align 8
  %195 = getelementptr inbounds nuw %struct.evdns_tree, ptr %194, i32 0, i32 0
  %196 = load ptr, ptr %195, align 8
  %197 = getelementptr inbounds nuw %struct.evdns_cache, ptr %196, i32 0, i32 0
  %198 = getelementptr inbounds nuw %struct.anon.9, ptr %197, i32 0, i32 1
  store ptr %193, ptr %198, align 8
  br label %199

199:                                              ; preds = %164
  br label %200

200:                                              ; preds = %199
  call void @llvm.lifetime.end.p0(i64 4, ptr %9) #10
  call void @llvm.lifetime.end.p0(i64 8, ptr %8) #10
  call void @llvm.lifetime.end.p0(i64 8, ptr %7) #10
  call void @llvm.lifetime.end.p0(i64 8, ptr %6) #10
  call void @llvm.lifetime.end.p0(i64 160, ptr %5) #10
  ret void
}