; Function Attrs: nofree nounwind memory(readwrite, inaccessiblemem: read) uwtable
define hidden void @evdns_tree_SPLAY(ptr noundef captures(none) %0, ptr noundef readonly captures(none) %1) local_unnamed_addr #10 {
  %3 = alloca %struct.evdns_cache, align 8
  call void @llvm.lifetime.start.p0(i64 160, ptr nonnull %3) #21
  %4 = getelementptr i8, ptr %1, i64 16
  call void @llvm.memset.p0.i64(ptr noundef nonnull align 8 dereferenceable(16) %3, i8 0, i64 16, i1 false)
  %5 = load ptr, ptr %0, align 8
  %.val51 = load ptr, ptr %4, align 8
  %6 = getelementptr i8, ptr %5, i64 16
  %.val4652 = load ptr, ptr %6, align 8
  %7 = tail call i32 @strcasecmp(ptr noundef readonly %.val51, ptr noundef readonly %.val4652) #23
  %.not53 = icmp eq i32 %7, 0
  br i1 %.not53, label %._crit_edge, label %.lr.ph

.lr.ph:                                           ; preds = %2, %46
  %8 = phi i32 [ %48, %46 ], [ %7, %2 ]
  %.val56 = phi ptr [ %.val, %46 ], [ %.val51, %2 ]
  %9 = phi ptr [ %storemerge, %46 ], [ %5, %2 ]
  %.055 = phi ptr [ %.1, %46 ], [ %3, %2 ]
  %.04154 = phi ptr [ %.142, %46 ], [ %3, %2 ]
  %10 = icmp slt i32 %8, 0
  br i1 %10, label %11, label %27

11:                                               ; preds = %.lr.ph
  %12 = load ptr, ptr %9, align 8
  %13 = icmp eq ptr %12, null
  br i1 %13, label %._crit_edge, label %14

14:                                               ; preds = %11
  %15 = getelementptr i8, ptr %12, i64 16
  %.val48 = load ptr, ptr %15, align 8
  %16 = tail call i32 @strcasecmp(ptr noundef readonly %.val56, ptr noundef readonly %.val48) #23
  %17 = icmp slt i32 %16, 0
  br i1 %17, label %18, label %24

18:                                               ; preds = %14
  %19 = getelementptr inbounds nuw i8, ptr %12, i64 8
  %20 = load ptr, ptr %19, align 8
  store ptr %20, ptr %9, align 8
  %21 = load ptr, ptr %0, align 8
  store ptr %21, ptr %19, align 8
  store ptr %12, ptr %0, align 8
  %22 = load ptr, ptr %12, align 8
  %23 = icmp eq ptr %22, null
  br i1 %23, label %._crit_edge, label %24

24:                                               ; preds = %14, %18
  %25 = phi ptr [ %9, %14 ], [ %12, %18 ]
  store ptr %25, ptr %.04154, align 8
  %26 = load ptr, ptr %0, align 8
  br label %46

27:                                               ; preds = %.lr.ph
  %28 = getelementptr inbounds nuw i8, ptr %9, i64 8
  %29 = load ptr, ptr %28, align 8
  %30 = icmp eq ptr %29, null
  br i1 %30, label %._crit_edge, label %31

31:                                               ; preds = %27
  %32 = getelementptr i8, ptr %29, i64 16
  %.val50 = load ptr, ptr %32, align 8
  %33 = tail call i32 @strcasecmp(ptr noundef readonly %.val56, ptr noundef readonly %.val50) #23
  %34 = icmp sgt i32 %33, 0
  br i1 %34, label %35, label %41

35:                                               ; preds = %31
  %36 = load ptr, ptr %29, align 8
  store ptr %36, ptr %28, align 8
  %37 = load ptr, ptr %0, align 8
  store ptr %37, ptr %29, align 8
  store ptr %29, ptr %0, align 8
  %38 = getelementptr inbounds nuw i8, ptr %29, i64 8
  %39 = load ptr, ptr %38, align 8
  %40 = icmp eq ptr %39, null
  br i1 %40, label %._crit_edge, label %41

41:                                               ; preds = %31, %35
  %42 = phi ptr [ %9, %31 ], [ %29, %35 ]
  %43 = getelementptr inbounds nuw i8, ptr %.055, i64 8
  store ptr %42, ptr %43, align 8
  %44 = load ptr, ptr %0, align 8
  %45 = getelementptr inbounds nuw i8, ptr %44, i64 8
  br label %46

46:                                               ; preds = %41, %24
  %storemerge.in = phi ptr [ %45, %41 ], [ %26, %24 ]
  %.142 = phi ptr [ %.04154, %41 ], [ %26, %24 ]
  %.1 = phi ptr [ %44, %41 ], [ %.055, %24 ]
  %storemerge = load ptr, ptr %storemerge.in, align 8
  store ptr %storemerge, ptr %0, align 8
  %.val = load ptr, ptr %4, align 8
  %47 = getelementptr i8, ptr %storemerge, i64 16
  %.val46 = load ptr, ptr %47, align 8
  %48 = tail call i32 @strcasecmp(ptr noundef readonly %.val, ptr noundef readonly %.val46) #23
  %.not = icmp eq i32 %48, 0
  br i1 %.not, label %._crit_edge, label %.lr.ph, !llvm.loop !38

._crit_edge:                                      ; preds = %35, %27, %18, %11, %46, %2
  %49 = phi ptr [ %5, %2 ], [ %storemerge, %46 ], [ %9, %11 ], [ %12, %18 ], [ %9, %27 ], [ %29, %35 ]
  %.041.lcssa = phi ptr [ %3, %2 ], [ %.142, %46 ], [ %.04154, %11 ], [ %.04154, %18 ], [ %.04154, %27 ], [ %.04154, %35 ]
  %.0.lcssa = phi ptr [ %3, %2 ], [ %.1, %46 ], [ %.055, %11 ], [ %.055, %18 ], [ %.055, %27 ], [ %.055, %35 ]
  %50 = getelementptr inbounds nuw i8, ptr %3, i64 8
  %51 = load ptr, ptr %49, align 8
  %52 = getelementptr inbounds nuw i8, ptr %.0.lcssa, i64 8
  store ptr %51, ptr %52, align 8
  %53 = load ptr, ptr %0, align 8
  %54 = getelementptr inbounds nuw i8, ptr %53, i64 8
  %55 = load ptr, ptr %54, align 8
  store ptr %55, ptr %.041.lcssa, align 8
  %56 = load ptr, ptr %50, align 8
  %57 = load ptr, ptr %0, align 8
  store ptr %56, ptr %57, align 8
  %58 = load ptr, ptr %3, align 8
  %59 = load ptr, ptr %0, align 8
  %60 = getelementptr inbounds nuw i8, ptr %59, i64 8
  store ptr %58, ptr %60, align 8
  call void @llvm.lifetime.end.p0(i64 160, ptr nonnull %3) #21
  ret void
}